; Function Attrs: mustprogress nofree norecurse nosync nounwind willreturn memory(argmem: read) uwtable
define range(i32 0, 2) i32 @SCT_signature_is_complete(ptr noundef readonly captures(none) %0) local_unnamed_addr #4 {
  %2 = load i32, ptr %0, align 8, !tbaa !11
  %3 = icmp eq i32 %2, 0
  br i1 %3, label %4, label %SCT_get_signature_nid.exit.thread

4:                                                ; preds = %1
  %5 = getelementptr inbounds nuw i8, ptr %0, i64 64
  %6 = load i8, ptr %5, align 8, !tbaa !19
  %7 = icmp eq i8 %6, 4
  br i1 %7, label %8, label %SCT_get_signature_nid.exit.thread

8:                                                ; preds = %4
  %9 = getelementptr inbounds nuw i8, ptr %0, i64 65
  %10 = load i8, ptr %9, align 1, !tbaa !20
  %11 = and i8 %10, -3
  %or.cond.not = icmp eq i8 %11, 1
  br i1 %or.cond.not, label %SCT_get_signature_nid.exit.thread6, label %SCT_get_signature_nid.exit.thread

SCT_get_signature_nid.exit.thread6:               ; preds = %8
  %12 = getelementptr inbounds nuw i8, ptr %0, i64 72
  %13 = load ptr, ptr %12, align 8, !tbaa !14
  %.not3 = icmp eq ptr %13, null
  br i1 %.not3, label %SCT_get_signature_nid.exit.thread, label %14

14:                                               ; preds = %SCT_get_signature_nid.exit.thread6
  %15 = getelementptr inbounds nuw i8, ptr %0, i64 80
  %16 = load i64, ptr %15, align 8, !tbaa !22
  %17 = icmp ne i64 %16, 0
  %18 = zext i1 %17 to i32
  br label %SCT_get_signature_nid.exit.thread

SCT_get_signature_nid.exit.thread:                ; preds = %8, %1, %4, %14, %SCT_get_signature_nid.exit.thread6
  %19 = phi i32 [ 0, %SCT_get_signature_nid.exit.thread6 ], [ %18, %14 ], [ 0, %4 ], [ 0, %1 ], [ 0, %8 ]
  ret i32 %19
}